target datalayout = "e-m:e-p270:32:32-p271:32:32-p272:64:64-i64:64-i128:128-f80:128-n8:16:32:64-S128"
target triple = "x86_64-pc-linux-gnu"

; Function Attrs: null_pointer_is_valid sspstrong uwtable
define hidden void @AesEncrypt(ptr noundef %0, ptr noundef %1) #0 {
  %3 = alloca ptr, align 8
  %4 = alloca ptr, align 8
  %5 = alloca ptr, align 8
  %6 = alloca i32, align 4
  store ptr %0, ptr %3, align 8
  store ptr %1, ptr %4, align 8
  call void @llvm.lifetime.start.p0(i64 8, ptr %5) #9
  %7 = call i32 @gcry_cipher_open(ptr noundef %5, i32 noundef 7, i32 noundef 1, i32 noundef 0)
  %8 = icmp ne i32 %7, 0
  br i1 %8, label %9, label %10

9:                                                ; preds = %2
  store i32 1, ptr %6, align 4
  br label %27

10:                                               ; preds = %2
  %11 = load ptr, ptr %5, align 8
  %12 = load ptr, ptr %4, align 8
  %13 = call i32 @gcry_cipher_setkey(ptr noundef %11, ptr noundef %12, i64 noundef 16)
  %14 = icmp ne i32 %13, 0
  br i1 %14, label %15, label %17

15:                                               ; preds = %10
  %16 = load ptr, ptr %5, align 8
  call void @gcry_cipher_close(ptr noundef %16)
  store i32 1, ptr %6, align 4
  br label %27

17:                                               ; preds = %10
  %18 = load ptr, ptr %5, align 8
  %19 = load ptr, ptr %3, align 8
  %20 = load ptr, ptr %3, align 8
  %21 = call i32 @gcry_cipher_encrypt(ptr noundef %18, ptr noundef %19, i64 noundef 16, ptr noundef %20, i64 noundef 16)
  %22 = icmp ne i32 %21, 0
  br i1 %22, label %23, label %25

23:                                               ; preds = %17
  %24 = load ptr, ptr %5, align 8
  call void @gcry_cipher_close(ptr noundef %24)
  store i32 1, ptr %6, align 4
  br label %27

25:                                               ; preds = %17
  %26 = load ptr, ptr %5, align 8
  call void @gcry_cipher_close(ptr noundef %26)
  store i32 1, ptr %6, align 4
  br label %27

27:                                               ; preds = %25, %23, %15, %9
  call void @llvm.lifetime.end.p0(i64 8, ptr %5) #9
  ret void
}