; Function Attrs: null_pointer_is_valid sspstrong uwtable
define hidden void @AesEncrypt(ptr noundef %0, ptr noundef %1) local_unnamed_addr #0 {
  %3 = alloca ptr, align 8
  call void @llvm.lifetime.start.p0(i64 8, ptr nonnull %3) #9
  %4 = call i32 @gcry_cipher_open(ptr noundef nonnull %3, i32 noundef 7, i32 noundef 1, i32 noundef 0)
  %.not = icmp eq i32 %4, 0
  br i1 %.not, label %5, label %12

5:                                                ; preds = %2
  %6 = load ptr, ptr %3, align 8
  %7 = call i32 @gcry_cipher_setkey(ptr noundef %6, ptr noundef %1, i64 noundef 16)
  %.not3 = icmp eq i32 %7, 0
  %8 = load ptr, ptr %3, align 8
  br i1 %.not3, label %9, label %.sink.split

9:                                                ; preds = %5
  %10 = call i32 @gcry_cipher_encrypt(ptr noundef %8, ptr noundef %0, i64 noundef 16, ptr noundef %0, i64 noundef 16)
  %11 = load ptr, ptr %3, align 8
  br label %.sink.split

.sink.split:                                      ; preds = %5, %9
  %.sink = phi ptr [ %11, %9 ], [ %8, %5 ]
  call void @gcry_cipher_close(ptr noundef %.sink)
  br label %12

12:                                               ; preds = %.sink.split, %2
  call void @llvm.lifetime.end.p0(i64 8, ptr nonnull %3) #9
  ret void
}